; Function Attrs: nounwind uwtable
define hidden i32 @_ir_CALL_1(ptr nocapture noundef %0, i32 noundef %1, i32 noundef %2, i32 noundef %3) local_unnamed_addr #0 {
  %5 = getelementptr inbounds i8, ptr %0, i64 248
  %6 = load i32, ptr %5, align 8
  %7 = getelementptr inbounds i8, ptr %0, i64 8
  %8 = load i32, ptr %7, align 8
  %9 = getelementptr inbounds i8, ptr %0, i64 12
  %10 = load i32, ptr %9, align 4
  %.not.i.i.i = icmp slt i32 %8, %10
  %.pre.i.i = load ptr, ptr %0, align 8
  br i1 %.not.i.i.i, label %ir_emit3.exit, label %11

11:                                               ; preds = %4
  %12 = getelementptr inbounds i8, ptr %0, i64 20
  %13 = load i32, ptr %12, align 4
  %14 = icmp slt i32 %10, 4096
  %15 = shl nsw i32 %10, 1
  %16 = icmp ult i32 %10, 8192
  %17 = add nuw nsw i32 %10, 4096
  %spec.select.i.i.i.i = select i1 %16, i32 8192, i32 %17
  %.sink.i.i.i.i = select i1 %14, i32 %15, i32 %spec.select.i.i.i.i
  store i32 %.sink.i.i.i.i, ptr %9, align 4
  %18 = sext i32 %13 to i64
  %19 = sub nsw i64 0, %18
  %20 = getelementptr inbounds %struct._ir_insn, ptr %.pre.i.i, i64 %19
  %21 = add nsw i32 %13, %.sink.i.i.i.i
  %22 = sext i32 %21 to i64
  %23 = shl nsw i64 %22, 4
  %24 = tail call ptr @_erealloc(ptr noundef %20, i64 noundef %23) #24
  %25 = load i32, ptr %12, align 4
  %26 = sext i32 %25 to i64
  %27 = getelementptr inbounds %struct._ir_insn, ptr %24, i64 %26
  store ptr %27, ptr %0, align 8
  br label %ir_emit3.exit

ir_emit3.exit:                                    ; preds = %4, %11
  %28 = phi ptr [ %.pre.i.i, %4 ], [ %27, %11 ]
  %29 = shl i32 %1, 8
  %30 = or i32 %29, 196677
  %31 = add nsw i32 %8, 1
  store i32 %31, ptr %7, align 8
  %32 = sext i32 %8 to i64
  %33 = getelementptr inbounds %struct._ir_insn, ptr %28, i64 %32
  store i32 %30, ptr %33, align 8
  %34 = getelementptr inbounds i8, ptr %33, i64 4
  store i32 %6, ptr %34, align 4
  %35 = getelementptr inbounds i8, ptr %33, i64 8
  store i32 %2, ptr %35, align 8
  %36 = getelementptr inbounds i8, ptr %33, i64 12
  store i32 %3, ptr %36, align 4
  store i32 %8, ptr %5, align 8
  ret i32 %8
}